target datalayout = "e-m:e-p270:32:32-p271:32:32-p272:64:64-i64:64-i128:128-f80:128-n8:16:32:64-S128"
target triple = "x86_64-pc-linux-gnu"

%"struct.llvm::ms_demangle::TypeNode.base" = type { %"struct.llvm::ms_demangle::Node.base", i8 }
%"struct.llvm::ms_demangle::Node.base" = type <{ ptr, i32 }>
%"struct.llvm::ms_demangle::CustomTypeNode" = type { %"struct.llvm::ms_demangle::TypeNode.base", ptr }

; Function Attrs: mustprogress nounwind uwtable
define dso_local void @_ZNK4llvm11ms_demangle14CustomTypeNode9outputPreERNS_16itanium_demangle12OutputBufferENS0_11OutputFlagsE(ptr noundef nonnull align 8 dereferenceable(24) %0, ptr noundef nonnull align 8 dereferenceable(36) %1, i32 noundef %2) unnamed_addr #0 align 2 {
  %4 = alloca ptr, align 8
  %5 = alloca ptr, align 8
  %6 = alloca i32, align 4
  store ptr %0, ptr %4, align 8
  store ptr %1, ptr %5, align 8
  store i32 %2, ptr %6, align 4
  %7 = load ptr, ptr %4, align 8
  %8 = getelementptr inbounds nuw %"struct.llvm::ms_demangle::CustomTypeNode", ptr %7, i32 0, i32 1
  %9 = load ptr, ptr %8, align 8
  %10 = load ptr, ptr %5, align 8
  %11 = load i32, ptr %6, align 4
  %12 = load ptr, ptr %9, align 8
  %13 = getelementptr inbounds ptr, ptr %12, i64 2
  %14 = load ptr, ptr %13, align 8
  call void %14(ptr noundef nonnull align 8 dereferenceable(12) %9, ptr noundef nonnull align 8 dereferenceable(36) %10, i32 noundef %11)
  ret void
}